target datalayout = "e-m:e-p270:32:32-p271:32:32-p272:64:64-i64:64-i128:128-f80:128-n8:16:32:64-S128"
target triple = "x86_64-pc-linux-gnu"

%struct.opj_cparameters = type { i32, i32, i32, i32, i32, i32, i32, i32, ptr, ptr, i32, i32, [32 x %struct.opj_poc], i32, i32, [100 x float], [100 x float], i32, i32, i32, i32, i32, i32, i32, i32, [33 x i32], [33 x i32], [4096 x i8], [4096 x i8], i32, [4096 x i8], i32, i32, i32, i32, i32, i32, i32, i32, [16 x i32], [16 x i32], [16 x i32], [16 x i32], [16 x i32], i32, i32, i32, i32, [16 x i32], [16 x i32], i32, i32, i32, i8, i8, i8, i32, ptr, i32, i16 }
%struct.opj_poc = type { i32, i32, i32, i32, i32, i32, i32, i32, i32, i32, [5 x i8], i32, i32, i32, i32, i32, i32, i32, i32, i32, i32, i32, i32, i32, i32, i32, i32, i32, i32, i32, i32, i32, i32, i32, i32, i32 }

; Function Attrs: nounwind uwtable
define hidden i32 @opj_set_MCT(ptr noundef %0, ptr noundef %1, ptr noundef %2, i32 noundef %3) #0 {
  %5 = alloca i32, align 4
  %6 = alloca ptr, align 8
  %7 = alloca ptr, align 8
  %8 = alloca ptr, align 8
  %9 = alloca i32, align 4
  %10 = alloca i32, align 4
  %11 = alloca i32, align 4
  %12 = alloca i32, align 4
  %13 = alloca i32, align 4
  store ptr %0, ptr %6, align 8, !tbaa !46
  store ptr %1, ptr %7, align 8, !tbaa !73
  store ptr %2, ptr %8, align 8, !tbaa !40
  store i32 %3, ptr %9, align 4, !tbaa !20
  call void @llvm.lifetime.start.p0(i64 4, ptr %10) #5
  %14 = load i32, ptr %9, align 4, !tbaa !20
  %15 = load i32, ptr %9, align 4, !tbaa !20
  %16 = mul i32 %14, %15
  %17 = mul i32 %16, 4
  store i32 %17, ptr %10, align 4, !tbaa !20
  call void @llvm.lifetime.start.p0(i64 4, ptr %11) #5
  %18 = load i32, ptr %9, align 4, !tbaa !20
  %19 = mul i32 %18, 4
  store i32 %19, ptr %11, align 4, !tbaa !20
  call void @llvm.lifetime.start.p0(i64 4, ptr %12) #5
  %20 = load i32, ptr %10, align 4, !tbaa !20
  %21 = load i32, ptr %11, align 4, !tbaa !20
  %22 = add i32 %20, %21
  store i32 %22, ptr %12, align 4, !tbaa !20
  %23 = load ptr, ptr %6, align 8, !tbaa !46
  %24 = getelementptr inbounds nuw %struct.opj_cparameters, ptr %23, i32 0, i32 59
  %25 = load i16, ptr %24, align 4, !tbaa !51
  %26 = zext i16 %25 to i32
  %27 = and i32 %26, 32768
  %28 = icmp ne i32 %27, 0
  br i1 %28, label %29, label %36

29:                                               ; preds = %4
  %30 = load ptr, ptr %6, align 8, !tbaa !46
  %31 = getelementptr inbounds nuw %struct.opj_cparameters, ptr %30, i32 0, i32 59
  %32 = load i16, ptr %31, align 4, !tbaa !51
  %33 = zext i16 %32 to i32
  %34 = or i32 %33, 256
  %35 = trunc i32 %34 to i16
  store i16 %35, ptr %31, align 4, !tbaa !51
  br label %39

36:                                               ; preds = %4
  %37 = load ptr, ptr %6, align 8, !tbaa !46
  %38 = getelementptr inbounds nuw %struct.opj_cparameters, ptr %37, i32 0, i32 59
  store i16 -32512, ptr %38, align 4, !tbaa !51
  br label %39

39:                                               ; preds = %36, %29
  %40 = load ptr, ptr %6, align 8, !tbaa !46
  %41 = getelementptr inbounds nuw %struct.opj_cparameters, ptr %40, i32 0, i32 21
  store i32 1, ptr %41, align 8, !tbaa !75
  %42 = load ptr, ptr %6, align 8, !tbaa !46
  %43 = getelementptr inbounds nuw %struct.opj_cparameters, ptr %42, i32 0, i32 55
  store i8 2, ptr %43, align 2, !tbaa !76
  %44 = load i32, ptr %12, align 4, !tbaa !20
  %45 = zext i32 %44 to i64
  %46 = call ptr @opj_malloc(i64 noundef %45)
  %47 = load ptr, ptr %6, align 8, !tbaa !46
  %48 = getelementptr inbounds nuw %struct.opj_cparameters, ptr %47, i32 0, i32 57
  store ptr %46, ptr %48, align 8, !tbaa !77
  %49 = load ptr, ptr %6, align 8, !tbaa !46
  %50 = getelementptr inbounds nuw %struct.opj_cparameters, ptr %49, i32 0, i32 57
  %51 = load ptr, ptr %50, align 8, !tbaa !77
  %52 = icmp ne ptr %51, null
  br i1 %52, label %54, label %53

53:                                               ; preds = %39
  store i32 0, ptr %5, align 4
  store i32 1, ptr %13, align 4
  br label %70

54:                                               ; preds = %39
  %55 = load ptr, ptr %6, align 8, !tbaa !46
  %56 = getelementptr inbounds nuw %struct.opj_cparameters, ptr %55, i32 0, i32 57
  %57 = load ptr, ptr %56, align 8, !tbaa !77
  %58 = load ptr, ptr %7, align 8, !tbaa !73
  %59 = load i32, ptr %10, align 4, !tbaa !20
  %60 = zext i32 %59 to i64
  call void @llvm.memcpy.p0.p0.i64(ptr align 1 %57, ptr align 4 %58, i64 %60, i1 false)
  %61 = load ptr, ptr %6, align 8, !tbaa !46
  %62 = getelementptr inbounds nuw %struct.opj_cparameters, ptr %61, i32 0, i32 57
  %63 = load ptr, ptr %62, align 8, !tbaa !77
  %64 = load i32, ptr %10, align 4, !tbaa !20
  %65 = zext i32 %64 to i64
  %66 = getelementptr inbounds nuw i8, ptr %63, i64 %65
  %67 = load ptr, ptr %8, align 8, !tbaa !40
  %68 = load i32, ptr %11, align 4, !tbaa !20
  %69 = zext i32 %68 to i64
  call void @llvm.memcpy.p0.p0.i64(ptr align 1 %66, ptr align 4 %67, i64 %69, i1 false)
  store i32 1, ptr %5, align 4
  store i32 1, ptr %13, align 4
  br label %70

70:                                               ; preds = %54, %53
  call void @llvm.lifetime.end.p0(i64 4, ptr %12) #5
  call void @llvm.lifetime.end.p0(i64 4, ptr %11) #5
  call void @llvm.lifetime.end.p0(i64 4, ptr %10) #5
  %71 = load i32, ptr %5, align 4
  ret i32 %71
}