; Function Attrs: nounwind uwtable
define hidden range(i32 0, 2) i32 @opj_set_MCT(ptr noundef captures(none) initializes((5616, 5620), (18698, 18699), (18704, 18712)) %0, ptr noundef readonly captures(none) %1, ptr noundef readonly captures(none) %2, i32 noundef %3) local_unnamed_addr #2 {
  %5 = shl i32 %3, 2
  %6 = mul i32 %5, %3
  %7 = add i32 %6, %5
  %8 = getelementptr inbounds nuw i8, ptr %0, i64 18716
  %9 = load i16, ptr %8, align 4, !tbaa !41
  %.not = icmp sgt i16 %9, -1
  %10 = or i16 %9, 256
  %storemerge = select i1 %.not, i16 -32512, i16 %10
  store i16 %storemerge, ptr %8, align 4, !tbaa !41
  %11 = getelementptr inbounds nuw i8, ptr %0, i64 5616
  store i32 1, ptr %11, align 8, !tbaa !42
  %12 = getelementptr inbounds nuw i8, ptr %0, i64 18698
  store i8 2, ptr %12, align 2, !tbaa !43
  %13 = zext i32 %7 to i64
  %14 = tail call ptr @opj_malloc(i64 noundef %13) #8
  %15 = getelementptr inbounds nuw i8, ptr %0, i64 18704
  store ptr %14, ptr %15, align 8, !tbaa !44
  %.not21 = icmp eq ptr %14, null
  br i1 %.not21, label %21, label %16

16:                                               ; preds = %4
  %17 = zext i32 %6 to i64
  tail call void @llvm.memcpy.p0.p0.i64(ptr nonnull align 1 %14, ptr align 4 %1, i64 %17, i1 false)
  %18 = load ptr, ptr %15, align 8, !tbaa !44
  %19 = getelementptr inbounds nuw i8, ptr %18, i64 %17
  %20 = zext i32 %5 to i64
  tail call void @llvm.memcpy.p0.p0.i64(ptr align 1 %19, ptr align 4 %2, i64 %20, i1 false)
  br label %21

21:                                               ; preds = %4, %16
  %.0 = phi i32 [ 1, %16 ], [ 0, %4 ]
  ret i32 %.0
}